target datalayout = "e-m:e-p270:32:32-p271:32:32-p272:64:64-i64:64-i128:128-f80:128-n8:16:32:64-S128"
target triple = "x86_64-unknown-linux-gnu"

@stderr = external global ptr, align 8
@.str.12 = private unnamed_addr constant [53 x i8] c"zmalloc: Out of memory trying to allocate %zu bytes\0A\00", align 1

; Function Attrs: nounwind uwtable
define internal void @zmalloc_default_oom(i64 noundef %size) #0 {
entry:
  %size.addr = alloca i64, align 8
  store i64 %size, ptr %size.addr, align 8
  %0 = load ptr, ptr @stderr, align 8
  %1 = load i64, ptr %size.addr, align 8
  %call = call i32 (ptr, ptr, ...) @fprintf(ptr noundef %0, ptr noundef @.str.12, i64 noundef %1) #12
  %2 = load ptr, ptr @stderr, align 8
  %call1 = call i32 @fflush(ptr noundef %2)
  call void @abort() #19
  unreachable
}