; Function Attrs: noreturn nounwind uwtable
define internal void @zmalloc_default_oom(i64 noundef %size) #18 {
entry:
  %0 = load ptr, ptr @stderr, align 8
  %call = tail call i32 (ptr, ptr, ...) @fprintf(ptr noundef %0, ptr noundef nonnull @.str.12, i64 noundef %size) #29
  %1 = load ptr, ptr @stderr, align 8
  %call1 = tail call i32 @fflush(ptr noundef %1)
  tail call void @abort() #30
  unreachable
}